; Function Attrs: nounwind uwtable
define dso_local ptr @makeJsonLexContext(ptr noundef %0, ptr noundef %1, i1 noundef zeroext %2) local_unnamed_addr #0 {
  %4 = tail call ptr @pg_detoast_datum_packed(ptr noundef %1) #15
  %5 = load i8, ptr %4, align 1
  %6 = zext i8 %5 to i32
  %7 = and i32 %6, 1
  %.not = icmp eq i32 %7, 0
  %8 = getelementptr inbounds nuw i8, ptr %4, i64 1
  %9 = icmp eq i8 %5, 1
  br i1 %9, label %10, label %18

10:                                               ; preds = %3
  %11 = load i8, ptr %8, align 1
  %12 = icmp eq i8 %11, 1
  %13 = and i8 %11, -2
  %14 = icmp eq i8 %13, 2
  %or.cond = or i1 %12, %14
  %15 = icmp eq i8 %11, 18
  %16 = select i1 %15, i64 16, i64 0
  %17 = select i1 %or.cond, i64 8, i64 %16
  br label %28

18:                                               ; preds = %3
  br i1 %.not, label %23, label %19

19:                                               ; preds = %18
  %20 = lshr i32 %6, 1
  %21 = zext nneg i32 %20 to i64
  %22 = add nsw i64 %21, -1
  br label %28

23:                                               ; preds = %18
  %24 = load i32, ptr %4, align 4
  %25 = lshr i32 %24, 2
  %26 = add nsw i32 %25, -4
  %27 = zext i32 %26 to i64
  br label %28

28:                                               ; preds = %19, %23, %10
  %29 = phi i64 [ %17, %10 ], [ %22, %19 ], [ %27, %23 ]
  %30 = getelementptr inbounds nuw i8, ptr %4, i64 4
  %31 = select i1 %.not, ptr %30, ptr %8
  %32 = tail call i32 @GetDatabaseEncoding() #15
  %33 = tail call ptr @makeJsonLexContextCstringLen(ptr noundef %0, ptr noundef nonnull %31, i64 noundef %29, i32 noundef %32, i1 noundef zeroext %2) #15
  ret ptr %33
}